target datalayout = "e-m:e-p270:32:32-p271:32:32-p272:64:64-i64:64-i128:128-f80:128-n8:16:32:64-S128"
target triple = "x86_64-pc-linux-gnu"

%struct.Node = type { i32 }
%struct.PlanState = type { i32, ptr, ptr, ptr, ptr, ptr, ptr, ptr, ptr, ptr, ptr, ptr, ptr, ptr, ptr, ptr, ptr, ptr, i8, ptr, ptr, ptr, ptr, ptr, i8, i8, i8, i8, i8, i8, i8, i8 }

@.str = private unnamed_addr constant [27 x i8] c"unrecognized node type: %d\00", align 1
@.str.1 = private unnamed_addr constant [15 x i8] c"execProcnode.c\00", align 1
@InterruptPending = external global i32, align 4
@__func__.MultiExecProcNode = private unnamed_addr constant [18 x i8] c"MultiExecProcNode\00", align 1

; Function Attrs: nounwind uwtable
define dso_local ptr @MultiExecProcNode(ptr noundef %0) #0 {
  %2 = alloca ptr, align 8
  %3 = alloca ptr, align 8
  store ptr %0, ptr %2, align 8
  call void @llvm.lifetime.start.p0(i64 8, ptr %3) #6
  call void @check_stack_depth()
  br label %4

4:                                                ; preds = %1
  %5 = load volatile i32, ptr @InterruptPending, align 4
  %6 = icmp ne i32 %5, 0
  %7 = zext i1 %6 to i32
  %8 = sext i32 %7 to i64
  %9 = call i64 @llvm.expect.i64(i64 %8, i64 0)
  %10 = icmp ne i64 %9, 0
  br i1 %10, label %11, label %12

11:                                               ; preds = %4
  call void @ProcessInterrupts()
  br label %12

12:                                               ; preds = %11, %4
  br label %13

13:                                               ; preds = %12
  br label %14

14:                                               ; preds = %13
  %15 = load ptr, ptr %2, align 8
  %16 = getelementptr inbounds nuw %struct.PlanState, ptr %15, i32 0, i32 13
  %17 = load ptr, ptr %16, align 8
  %18 = icmp ne ptr %17, null
  br i1 %18, label %19, label %21

19:                                               ; preds = %14
  %20 = load ptr, ptr %2, align 8
  call void @ExecReScan(ptr noundef %20)
  br label %21

21:                                               ; preds = %19, %14
  %22 = load ptr, ptr %2, align 8
  %23 = getelementptr inbounds nuw %struct.Node, ptr %22, i32 0, i32 0
  %24 = load i32, ptr %23, align 4
  switch i32 %24, label %37 [
    i32 433, label %25
    i32 406, label %28
    i32 399, label %31
    i32 400, label %34
  ]

25:                                               ; preds = %21
  %26 = load ptr, ptr %2, align 8
  %27 = call ptr @MultiExecHash(ptr noundef %26)
  store ptr %27, ptr %3, align 8
  br label %51

28:                                               ; preds = %21
  %29 = load ptr, ptr %2, align 8
  %30 = call ptr @MultiExecBitmapIndexScan(ptr noundef %29)
  store ptr %30, ptr %3, align 8
  br label %51

31:                                               ; preds = %21
  %32 = load ptr, ptr %2, align 8
  %33 = call ptr @MultiExecBitmapAnd(ptr noundef %32)
  store ptr %33, ptr %3, align 8
  br label %51

34:                                               ; preds = %21
  %35 = load ptr, ptr %2, align 8
  %36 = call ptr @MultiExecBitmapOr(ptr noundef %35)
  store ptr %36, ptr %3, align 8
  br label %51

37:                                               ; preds = %21
  br label %38

38:                                               ; preds = %37
  br i1 true, label %39, label %41

39:                                               ; preds = %38
  %40 = call zeroext i1 @errstart_cold(i32 noundef 21, ptr noundef null) #7
  br i1 %40, label %43, label %48

41:                                               ; preds = %38
  %42 = call zeroext i1 @errstart(i32 noundef 21, ptr noundef null)
  br i1 %42, label %43, label %48

43:                                               ; preds = %41, %39
  %44 = load ptr, ptr %2, align 8
  %45 = getelementptr inbounds nuw %struct.Node, ptr %44, i32 0, i32 0
  %46 = load i32, ptr %45, align 4
  %47 = call i32 (ptr, ...) @errmsg_internal(ptr noundef @.str, i32 noundef %46)
  call void @errfinish(ptr noundef @.str.1, i32 noundef 541, ptr noundef @__func__.MultiExecProcNode)
  br label %48

48:                                               ; preds = %43, %41, %39
  unreachable

49:                                               ; No predecessors!
  br label %50

50:                                               ; preds = %49
  store ptr null, ptr %3, align 8
  br label %51

51:                                               ; preds = %50, %34, %31, %28, %25
  %52 = load ptr, ptr %3, align 8
  call void @llvm.lifetime.end.p0(i64 8, ptr %3) #6
  ret ptr %52
}