; Function Attrs: nounwind uwtable
define dso_local ptr @MultiExecProcNode(ptr noundef %0) local_unnamed_addr #0 {
  tail call void @check_stack_depth() #6
  %2 = load volatile i32, ptr @InterruptPending, align 4
  %.not = icmp eq i32 %2, 0
  br i1 %.not, label %4, label %3, !prof !6

3:                                                ; preds = %1
  tail call void @ProcessInterrupts() #6
  br label %4

4:                                                ; preds = %3, %1
  %5 = getelementptr inbounds nuw i8, ptr %0, i64 104
  %6 = load ptr, ptr %5, align 8
  %.not9 = icmp eq ptr %6, null
  br i1 %.not9, label %8, label %7

7:                                                ; preds = %4
  tail call void @ExecReScan(ptr noundef nonnull %0) #6
  br label %8

8:                                                ; preds = %7, %4
  %9 = load i32, ptr %0, align 4
  switch i32 %9, label %18 [
    i32 433, label %10
    i32 406, label %12
    i32 399, label %14
    i32 400, label %16
  ]

10:                                               ; preds = %8
  %11 = tail call ptr @MultiExecHash(ptr noundef nonnull %0) #6
  br label %22

12:                                               ; preds = %8
  %13 = tail call ptr @MultiExecBitmapIndexScan(ptr noundef nonnull %0) #6
  br label %22

14:                                               ; preds = %8
  %15 = tail call ptr @MultiExecBitmapAnd(ptr noundef nonnull %0) #6
  br label %22

16:                                               ; preds = %8
  %17 = tail call ptr @MultiExecBitmapOr(ptr noundef nonnull %0) #6
  br label %22

18:                                               ; preds = %8
  %19 = tail call zeroext i1 @errstart_cold(i32 noundef 21, ptr noundef null) #7
  tail call void @llvm.assume(i1 %19)
  %20 = load i32, ptr %0, align 4
  %21 = tail call i32 (ptr, ...) @errmsg_internal(ptr noundef nonnull @.str, i32 noundef %20) #6
  tail call void @errfinish(ptr noundef nonnull @.str.1, i32 noundef 541, ptr noundef nonnull @__func__.MultiExecProcNode) #6
  unreachable

22:                                               ; preds = %16, %14, %12, %10
  %.0 = phi ptr [ %17, %16 ], [ %15, %14 ], [ %13, %12 ], [ %11, %10 ]
  ret ptr %.0
}